; ModuleID = '24/1006.c'
source_filename = "24/1006.c"
target datalayout = "e-m:e-p270:32:32-p271:32:32-p272:64:64-i64:64-f80:128-n8:16:32:64-S128"
target triple = "x86_64-pc-linux-gnu"

@.str = private unnamed_addr constant [4 x i8] c"%s\0A\00", align 1

; Function Attrs: noinline nounwind uwtable
define dso_local i32 @main() #0 {
  %1 = alloca i32, align 4
  %2 = alloca i32, align 4
  %3 = alloca i32, align 4
  %4 = alloca i32, align 4
  %5 = alloca i32, align 4
  %6 = alloca i32, align 4
  %7 = alloca i32, align 4
  %8 = alloca i32, align 4
  %9 = alloca i32, align 4
  %10 = alloca [1000 x i32], align 16
  %11 = alloca [1000 x i8], align 16
  %12 = alloca [1000 x [100 x i8]], align 16
  store i32 0, i32* %1, align 4
  store i32 0, i32* %2, align 4
  store i32 0, i32* %4, align 4
  store i32 0, i32* %5, align 4
  store i32 0, i32* %6, align 4
  store i32 0, i32* %7, align 4
  store i32 0, i32* %8, align 4
  store i32 0, i32* %9, align 4
  %13 = getelementptr inbounds [1000 x i8], [1000 x i8]* %11, i64 0, i64 0
  %14 = call i32 (i8*, ...) bitcast (i32 (...)* @gets to i32 (i8*, ...)*)(i8* %13)
  %15 = getelementptr inbounds [1000 x i8], [1000 x i8]* %11, i64 0, i64 0
  %16 = call i64 @strlen(i8* %15) #3
  %17 = trunc i64 %16 to i32
  store i32 %17, i32* %2, align 4
  store i32 0, i32* %3, align 4
  br label %18

18:                                               ; preds = %58, %0
  %19 = load i32, i32* %3, align 4
  %20 = load i32, i32* %2, align 4
  %21 = icmp sle i32 %19, %20
  br i1 %21, label %22, label %61

22:                                               ; preds = %18
  %23 = load i32, i32* %3, align 4
  %24 = sext i32 %23 to i64
  %25 = getelementptr inbounds [1000 x i8], [1000 x i8]* %11, i64 0, i64 %24
  %26 = load i8, i8* %25, align 1
  %27 = sext i8 %26 to i32
  %28 = icmp eq i32 %27, 32
  br i1 %28, label %36, label %29

29:                                               ; preds = %22
  %30 = load i32, i32* %3, align 4
  %31 = sext i32 %30 to i64
  %32 = getelementptr inbounds [1000 x i8], [1000 x i8]* %11, i64 0, i64 %31
  %33 = load i8, i8* %32, align 1
  %34 = sext i8 %33 to i32
  %35 = icmp eq i32 %34, 0
  br i1 %35, label %36, label %45

36:                                               ; preds = %29, %22
  %37 = load i32, i32* %5, align 4
  %38 = sext i32 %37 to i64
  %39 = getelementptr inbounds [1000 x [100 x i8]], [1000 x [100 x i8]]* %12, i64 0, i64 %38
  %40 = load i32, i32* %4, align 4
  %41 = sext i32 %40 to i64
  %42 = getelementptr inbounds [100 x i8], [100 x i8]* %39, i64 0, i64 %41
  store i8 0, i8* %42, align 1
  %43 = load i32, i32* %5, align 4
  %44 = add nsw i32 %43, 1
  store i32 %44, i32* %5, align 4
  store i32 0, i32* %4, align 4
  br label %58

45:                                               ; preds = %29
  %46 = load i32, i32* %3, align 4
  %47 = sext i32 %46 to i64
  %48 = getelementptr inbounds [1000 x i8], [1000 x i8]* %11, i64 0, i64 %47
  %49 = load i8, i8* %48, align 1
  %50 = load i32, i32* %5, align 4
  %51 = sext i32 %50 to i64
  %52 = getelementptr inbounds [1000 x [100 x i8]], [1000 x [100 x i8]]* %12, i64 0, i64 %51
  %53 = load i32, i32* %4, align 4
  %54 = sext i32 %53 to i64
  %55 = getelementptr inbounds [100 x i8], [100 x i8]* %52, i64 0, i64 %54
  store i8 %49, i8* %55, align 1
  %56 = load i32, i32* %4, align 4
  %57 = add nsw i32 %56, 1
  store i32 %57, i32* %4, align 4
  br label %58

58:                                               ; preds = %45, %36
  %59 = load i32, i32* %3, align 4
  %60 = add nsw i32 %59, 1
  store i32 %60, i32* %3, align 4
  br label %18

61:                                               ; preds = %18
  %62 = load i32, i32* %5, align 4
  %63 = sext i32 %62 to i64
  %64 = getelementptr inbounds [1000 x [100 x i8]], [1000 x [100 x i8]]* %12, i64 0, i64 %63
  %65 = load i32, i32* %4, align 4
  %66 = sext i32 %65 to i64
  %67 = getelementptr inbounds [100 x i8], [100 x i8]* %64, i64 0, i64 %66
  store i8 0, i8* %67, align 1
  store i32 0, i32* %3, align 4
  br label %68

68:                                               ; preds = %82, %61
  %69 = load i32, i32* %3, align 4
  %70 = load i32, i32* %5, align 4
  %71 = icmp sle i32 %69, %70
  br i1 %71, label %72, label %85

72:                                               ; preds = %68
  %73 = load i32, i32* %3, align 4
  %74 = sext i32 %73 to i64
  %75 = getelementptr inbounds [1000 x [100 x i8]], [1000 x [100 x i8]]* %12, i64 0, i64 %74
  %76 = getelementptr inbounds [100 x i8], [100 x i8]* %75, i64 0, i64 0
  %77 = call i64 @strlen(i8* %76) #3
  %78 = trunc i64 %77 to i32
  %79 = load i32, i32* %3, align 4
  %80 = sext i32 %79 to i64
  %81 = getelementptr inbounds [1000 x i32], [1000 x i32]* %10, i64 0, i64 %80
  store i32 %78, i32* %81, align 4
  br label %82

82:                                               ; preds = %72
  %83 = load i32, i32* %3, align 4
  %84 = add nsw i32 %83, 1
  store i32 %84, i32* %3, align 4
  br label %68

85:                                               ; preds = %68
  %86 = getelementptr inbounds [1000 x i32], [1000 x i32]* %10, i64 0, i64 0
  %87 = load i32, i32* %86, align 16
  store i32 %87, i32* %6, align 4
  %88 = getelementptr inbounds [1000 x i32], [1000 x i32]* %10, i64 0, i64 0
  %89 = load i32, i32* %88, align 16
  store i32 %89, i32* %7, align 4
  store i32 0, i32* %3, align 4
  br label %90

90:                                               ; preds = %121, %85
  %91 = load i32, i32* %3, align 4
  %92 = load i32, i32* %5, align 4
  %93 = icmp slt i32 %91, %92
  br i1 %93, label %94, label %124

94:                                               ; preds = %90
  %95 = load i32, i32* %6, align 4
  %96 = load i32, i32* %3, align 4
  %97 = sext i32 %96 to i64
  %98 = getelementptr inbounds [1000 x i32], [1000 x i32]* %10, i64 0, i64 %97
  %99 = load i32, i32* %98, align 4
  %100 = icmp slt i32 %95, %99
  br i1 %100, label %101, label %107

101:                                              ; preds = %94
  %102 = load i32, i32* %3, align 4
  %103 = sext i32 %102 to i64
  %104 = getelementptr inbounds [1000 x i32], [1000 x i32]* %10, i64 0, i64 %103
  %105 = load i32, i32* %104, align 4
  store i32 %105, i32* %6, align 4
  %106 = load i32, i32* %3, align 4
  store i32 %106, i32* %8, align 4
  br label %107

107:                                              ; preds = %101, %94
  %108 = load i32, i32* %7, align 4
  %109 = load i32, i32* %3, align 4
  %110 = sext i32 %109 to i64
  %111 = getelementptr inbounds [1000 x i32], [1000 x i32]* %10, i64 0, i64 %110
  %112 = load i32, i32* %111, align 4
  %113 = icmp sgt i32 %108, %112
  br i1 %113, label %114, label %120

114:                                              ; preds = %107
  %115 = load i32, i32* %3, align 4
  %116 = sext i32 %115 to i64
  %117 = getelementptr inbounds [1000 x i32], [1000 x i32]* %10, i64 0, i64 %116
  %118 = load i32, i32* %117, align 4
  store i32 %118, i32* %7, align 4
  %119 = load i32, i32* %3, align 4
  store i32 %119, i32* %9, align 4
  br label %120

120:                                              ; preds = %114, %107
  br label %121

121:                                              ; preds = %120
  %122 = load i32, i32* %3, align 4
  %123 = add nsw i32 %122, 1
  store i32 %123, i32* %3, align 4
  br label %90

124:                                              ; preds = %90
  %125 = load i32, i32* %8, align 4
  %126 = sext i32 %125 to i64
  %127 = getelementptr inbounds [1000 x [100 x i8]], [1000 x [100 x i8]]* %12, i64 0, i64 %126
  %128 = getelementptr inbounds [100 x i8], [100 x i8]* %127, i64 0, i64 0
  %129 = call i32 (i8*, ...) @printf(i8* getelementptr inbounds ([4 x i8], [4 x i8]* @.str, i64 0, i64 0), i8* %128)
  %130 = load i32, i32* %9, align 4
  %131 = sext i32 %130 to i64
  %132 = getelementptr inbounds [1000 x [100 x i8]], [1000 x [100 x i8]]* %12, i64 0, i64 %131
  %133 = getelementptr inbounds [100 x i8], [100 x i8]* %132, i64 0, i64 0
  %134 = call i32 (i8*, ...) @printf(i8* getelementptr inbounds ([4 x i8], [4 x i8]* @.str, i64 0, i64 0), i8* %133)
  ret i32 0
}

declare dso_local i32 @gets(...) #1

; Function Attrs: nounwind readonly
declare dso_local i64 @strlen(i8*) #2

declare dso_local i32 @printf(i8*, ...) #1


!llvm.module.flags = !{!0}
!llvm.ident = !{!1}

!0 = !{i32 1, !"wchar_size", i32 4}
!1 = !{!"clang version 10.0.0-4ubuntu1 "}
